; ModuleID = '32/545.c'
source_filename = "32/545.c"
target datalayout = "e-m:e-p270:32:32-p271:32:32-p272:64:64-i64:64-f80:128-n8:16:32:64-S128"
target triple = "x86_64-pc-linux-gnu"

@.str = private unnamed_addr constant [3 x i8] c"%d\00", align 1
@.str.1 = private unnamed_addr constant [5 x i8] c"%s%s\00", align 1
@.str.2 = private unnamed_addr constant [2 x i8] c"\0A\00", align 1

; Function Attrs: noinline nounwind uwtable
define dso_local void @main() #0 {
  %1 = alloca [100 x i32], align 16
  %2 = alloca [100 x i32], align 16
  %3 = alloca i32, align 4
  %4 = alloca i32, align 4
  %5 = alloca i32, align 4
  %6 = alloca i32, align 4
  %7 = alloca i32, align 4
  %8 = alloca [101 x i8], align 16
  %9 = alloca [101 x i8], align 16
  %10 = call i32 (i8*, ...) @__isoc99_scanf(i8* getelementptr inbounds ([3 x i8], [3 x i8]* @.str, i64 0, i64 0), i32* %3)
  br label %11

11:                                               ; preds = %163, %0
  %12 = load i32, i32* %3, align 4
  %13 = add nsw i32 %12, -1
  store i32 %13, i32* %3, align 4
  %14 = icmp ne i32 %12, 0
  br i1 %14, label %15, label %165

15:                                               ; preds = %11
  %16 = getelementptr inbounds [101 x i8], [101 x i8]* %8, i64 0, i64 0
  %17 = getelementptr inbounds [101 x i8], [101 x i8]* %9, i64 0, i64 0
  %18 = call i32 (i8*, ...) @__isoc99_scanf(i8* getelementptr inbounds ([5 x i8], [5 x i8]* @.str.1, i64 0, i64 0), i8* %16, i8* %17)
  %19 = getelementptr inbounds [101 x i8], [101 x i8]* %8, i64 0, i64 0
  %20 = call i64 @strlen(i8* %19) #3
  %21 = trunc i64 %20 to i32
  store i32 %21, i32* %4, align 4
  %22 = getelementptr inbounds [101 x i8], [101 x i8]* %9, i64 0, i64 0
  %23 = call i64 @strlen(i8* %22) #3
  %24 = trunc i64 %23 to i32
  store i32 %24, i32* %5, align 4
  store i32 0, i32* %6, align 4
  br label %25

25:                                               ; preds = %39, %15
  %26 = load i32, i32* %6, align 4
  %27 = load i32, i32* %4, align 4
  %28 = icmp slt i32 %26, %27
  br i1 %28, label %29, label %42

29:                                               ; preds = %25
  %30 = load i32, i32* %6, align 4
  %31 = sext i32 %30 to i64
  %32 = getelementptr inbounds [101 x i8], [101 x i8]* %8, i64 0, i64 %31
  %33 = load i8, i8* %32, align 1
  %34 = sext i8 %33 to i32
  %35 = sub nsw i32 %34, 48
  %36 = load i32, i32* %6, align 4
  %37 = sext i32 %36 to i64
  %38 = getelementptr inbounds [100 x i32], [100 x i32]* %1, i64 0, i64 %37
  store i32 %35, i32* %38, align 4
  br label %39

39:                                               ; preds = %29
  %40 = load i32, i32* %6, align 4
  %41 = add nsw i32 %40, 1
  store i32 %41, i32* %6, align 4
  br label %25

42:                                               ; preds = %25
  store i32 0, i32* %7, align 4
  br label %43

43:                                               ; preds = %61, %42
  %44 = load i32, i32* %7, align 4
  %45 = load i32, i32* %5, align 4
  %46 = icmp slt i32 %44, %45
  br i1 %46, label %47, label %64

47:                                               ; preds = %43
  %48 = load i32, i32* %7, align 4
  %49 = sext i32 %48 to i64
  %50 = getelementptr inbounds [101 x i8], [101 x i8]* %9, i64 0, i64 %49
  %51 = load i8, i8* %50, align 1
  %52 = sext i8 %51 to i32
  %53 = sub nsw i32 %52, 48
  %54 = load i32, i32* %7, align 4
  %55 = load i32, i32* %4, align 4
  %56 = add nsw i32 %54, %55
  %57 = load i32, i32* %5, align 4
  %58 = sub nsw i32 %56, %57
  %59 = sext i32 %58 to i64
  %60 = getelementptr inbounds [100 x i32], [100 x i32]* %2, i64 0, i64 %59
  store i32 %53, i32* %60, align 4
  br label %61

61:                                               ; preds = %47
  %62 = load i32, i32* %7, align 4
  %63 = add nsw i32 %62, 1
  store i32 %63, i32* %7, align 4
  br label %43

64:                                               ; preds = %43
  %65 = load i32, i32* %4, align 4
  %66 = sub nsw i32 %65, 1
  store i32 %66, i32* %6, align 4
  br label %67

67:                                               ; preds = %104, %64
  %68 = load i32, i32* %6, align 4
  %69 = load i32, i32* %4, align 4
  %70 = load i32, i32* %5, align 4
  %71 = sub nsw i32 %69, %70
  %72 = icmp sge i32 %68, %71
  br i1 %72, label %73, label %107

73:                                               ; preds = %67
  %74 = load i32, i32* %6, align 4
  %75 = sext i32 %74 to i64
  %76 = getelementptr inbounds [100 x i32], [100 x i32]* %1, i64 0, i64 %75
  %77 = load i32, i32* %76, align 4
  %78 = load i32, i32* %6, align 4
  %79 = sext i32 %78 to i64
  %80 = getelementptr inbounds [100 x i32], [100 x i32]* %2, i64 0, i64 %79
  %81 = load i32, i32* %80, align 4
  %82 = sub nsw i32 %77, %81
  %83 = load i32, i32* %6, align 4
  %84 = sext i32 %83 to i64
  %85 = getelementptr inbounds [100 x i32], [100 x i32]* %1, i64 0, i64 %84
  store i32 %82, i32* %85, align 4
  %86 = load i32, i32* %6, align 4
  %87 = sext i32 %86 to i64
  %88 = getelementptr inbounds [100 x i32], [100 x i32]* %1, i64 0, i64 %87
  %89 = load i32, i32* %88, align 4
  %90 = icmp slt i32 %89, 0
  br i1 %90, label %91, label %103

91:                                               ; preds = %73
  %92 = load i32, i32* %6, align 4
  %93 = sext i32 %92 to i64
  %94 = getelementptr inbounds [100 x i32], [100 x i32]* %1, i64 0, i64 %93
  %95 = load i32, i32* %94, align 4
  %96 = add nsw i32 %95, 10
  store i32 %96, i32* %94, align 4
  %97 = load i32, i32* %6, align 4
  %98 = sub nsw i32 %97, 1
  %99 = sext i32 %98 to i64
  %100 = getelementptr inbounds [100 x i32], [100 x i32]* %1, i64 0, i64 %99
  %101 = load i32, i32* %100, align 4
  %102 = add nsw i32 %101, -1
  store i32 %102, i32* %100, align 4
  br label %103

103:                                              ; preds = %91, %73
  br label %104

104:                                              ; preds = %103
  %105 = load i32, i32* %6, align 4
  %106 = add nsw i32 %105, -1
  store i32 %106, i32* %6, align 4
  br label %67

107:                                              ; preds = %67
  br label %108

108:                                              ; preds = %119, %107
  %109 = load i32, i32* %6, align 4
  %110 = sext i32 %109 to i64
  %111 = getelementptr inbounds [100 x i32], [100 x i32]* %1, i64 0, i64 %110
  %112 = load i32, i32* %111, align 4
  %113 = icmp slt i32 %112, 0
  br i1 %113, label %114, label %117

114:                                              ; preds = %108
  %115 = load i32, i32* %6, align 4
  %116 = icmp sgt i32 %115, 0
  br label %117

117:                                              ; preds = %114, %108
  %118 = phi i1 [ false, %108 ], [ %116, %114 ]
  br i1 %118, label %119, label %132

119:                                              ; preds = %117
  %120 = load i32, i32* %6, align 4
  %121 = sext i32 %120 to i64
  %122 = getelementptr inbounds [100 x i32], [100 x i32]* %1, i64 0, i64 %121
  %123 = load i32, i32* %122, align 4
  %124 = add nsw i32 %123, 10
  store i32 %124, i32* %122, align 4
  %125 = load i32, i32* %6, align 4
  %126 = add nsw i32 %125, -1
  store i32 %126, i32* %6, align 4
  %127 = load i32, i32* %6, align 4
  %128 = sext i32 %127 to i64
  %129 = getelementptr inbounds [100 x i32], [100 x i32]* %1, i64 0, i64 %128
  %130 = load i32, i32* %129, align 4
  %131 = add nsw i32 %130, -1
  store i32 %131, i32* %129, align 4
  br label %108

132:                                              ; preds = %117
  store i32 0, i32* %7, align 4
  br label %133

133:                                              ; preds = %145, %132
  %134 = load i32, i32* %7, align 4
  %135 = load i32, i32* %4, align 4
  %136 = icmp slt i32 %134, %135
  br i1 %136, label %137, label %148

137:                                              ; preds = %133
  %138 = load i32, i32* %7, align 4
  %139 = sext i32 %138 to i64
  %140 = getelementptr inbounds [100 x i32], [100 x i32]* %1, i64 0, i64 %139
  %141 = load i32, i32* %140, align 4
  %142 = icmp ne i32 %141, 0
  br i1 %142, label %143, label %144

143:                                              ; preds = %137
  br label %148

144:                                              ; preds = %137
  br label %145

145:                                              ; preds = %144
  %146 = load i32, i32* %7, align 4
  %147 = add nsw i32 %146, 1
  store i32 %147, i32* %7, align 4
  br label %133

148:                                              ; preds = %143, %133
  %149 = load i32, i32* %7, align 4
  store i32 %149, i32* %6, align 4
  br label %150

150:                                              ; preds = %160, %148
  %151 = load i32, i32* %6, align 4
  %152 = load i32, i32* %4, align 4
  %153 = icmp slt i32 %151, %152
  br i1 %153, label %154, label %163

154:                                              ; preds = %150
  %155 = load i32, i32* %6, align 4
  %156 = sext i32 %155 to i64
  %157 = getelementptr inbounds [100 x i32], [100 x i32]* %1, i64 0, i64 %156
  %158 = load i32, i32* %157, align 4
  %159 = call i32 (i8*, ...) @printf(i8* getelementptr inbounds ([3 x i8], [3 x i8]* @.str, i64 0, i64 0), i32 %158)
  br label %160

160:                                              ; preds = %154
  %161 = load i32, i32* %6, align 4
  %162 = add nsw i32 %161, 1
  store i32 %162, i32* %6, align 4
  br label %150

163:                                              ; preds = %150
  %164 = call i32 (i8*, ...) @printf(i8* getelementptr inbounds ([2 x i8], [2 x i8]* @.str.2, i64 0, i64 0))
  br label %11

165:                                              ; preds = %11
  ret void
}

declare dso_local i32 @__isoc99_scanf(i8*, ...) #1

; Function Attrs: nounwind readonly
declare dso_local i64 @strlen(i8*) #2

declare dso_local i32 @printf(i8*, ...) #1


!llvm.module.flags = !{!0}
!llvm.ident = !{!1}

!0 = !{i32 1, !"wchar_size", i32 4}
!1 = !{!"clang version 10.0.0-4ubuntu1 "}
